; Function Attrs: nounwind uwtable
define hidden ptr @_PyAST_Break(i32 noundef %0, i32 noundef %1, i32 noundef %2, i32 noundef %3, ptr noundef %4) local_unnamed_addr #0 {
  %6 = tail call ptr @_PyArena_Malloc(ptr noundef %4, i64 noundef 80) #8
  %.not = icmp eq ptr %6, null
  br i1 %.not, label %12, label %7

7:                                                ; preds = %5
  store i32 27, ptr %6, align 8, !tbaa !20
  %8 = getelementptr inbounds nuw i8, ptr %6, i64 64
  store i32 %0, ptr %8, align 8, !tbaa !22
  %9 = getelementptr inbounds nuw i8, ptr %6, i64 68
  store i32 %1, ptr %9, align 4, !tbaa !23
  %10 = getelementptr inbounds nuw i8, ptr %6, i64 72
  store i32 %2, ptr %10, align 8, !tbaa !24
  %11 = getelementptr inbounds nuw i8, ptr %6, i64 76
  store i32 %3, ptr %11, align 4, !tbaa !25
  br label %12

12:                                               ; preds = %5, %7
  ret ptr %6
}